; ModuleID = '57/3275.c'
source_filename = "57/3275.c"
target datalayout = "e-m:e-p270:32:32-p271:32:32-p272:64:64-i64:64-f80:128-n8:16:32:64-S128"
target triple = "x86_64-pc-linux-gnu"

@.str = private unnamed_addr constant [4 x i8] c"%d\0A\00", align 1

; Function Attrs: noinline nounwind uwtable
define dso_local void @main() #0 {
  %1 = alloca i32, align 4
  %2 = alloca i32, align 4
  %3 = alloca i32, align 4
  %4 = alloca [100 x i8], align 16
  %5 = call i32 (i8*, ...) @__isoc99_scanf(i8* getelementptr inbounds ([4 x i8], [4 x i8]* @.str, i64 0, i64 0), i32* %1)
  store i32 0, i32* %2, align 4
  br label %6

6:                                                ; preds = %56, %0
  %7 = load i32, i32* %2, align 4
  %8 = load i32, i32* %1, align 4
  %9 = icmp slt i32 %7, %8
  br i1 %9, label %10, label %59

10:                                               ; preds = %6
  %11 = getelementptr inbounds [100 x i8], [100 x i8]* %4, i64 0, i64 0
  %12 = call i32 (i8*, ...) bitcast (i32 (...)* @gets to i32 (i8*, ...)*)(i8* %11)
  %13 = getelementptr inbounds [100 x i8], [100 x i8]* %4, i64 0, i64 0
  %14 = call i64 @strlen(i8* %13) #3
  %15 = trunc i64 %14 to i32
  store i32 %15, i32* %3, align 4
  %16 = load i32, i32* %3, align 4
  %17 = sub nsw i32 %16, 1
  store i32 %17, i32* %3, align 4
  %18 = load i32, i32* %3, align 4
  %19 = sext i32 %18 to i64
  %20 = getelementptr inbounds [100 x i8], [100 x i8]* %4, i64 0, i64 %19
  %21 = load i8, i8* %20, align 1
  %22 = sext i8 %21 to i32
  %23 = icmp eq i32 %22, 114
  br i1 %23, label %24, label %29

24:                                               ; preds = %10
  %25 = load i32, i32* %3, align 4
  %26 = sub nsw i32 %25, 1
  %27 = sext i32 %26 to i64
  %28 = getelementptr inbounds [100 x i8], [100 x i8]* %4, i64 0, i64 %27
  store i8 0, i8* %28, align 1
  br label %29

29:                                               ; preds = %24, %10
  %30 = load i32, i32* %3, align 4
  %31 = sext i32 %30 to i64
  %32 = getelementptr inbounds [100 x i8], [100 x i8]* %4, i64 0, i64 %31
  %33 = load i8, i8* %32, align 1
  %34 = sext i8 %33 to i32
  %35 = icmp eq i32 %34, 121
  br i1 %35, label %36, label %41

36:                                               ; preds = %29
  %37 = load i32, i32* %3, align 4
  %38 = sub nsw i32 %37, 1
  %39 = sext i32 %38 to i64
  %40 = getelementptr inbounds [100 x i8], [100 x i8]* %4, i64 0, i64 %39
  store i8 0, i8* %40, align 1
  br label %41

41:                                               ; preds = %36, %29
  %42 = load i32, i32* %3, align 4
  %43 = sext i32 %42 to i64
  %44 = getelementptr inbounds [100 x i8], [100 x i8]* %4, i64 0, i64 %43
  %45 = load i8, i8* %44, align 1
  %46 = sext i8 %45 to i32
  %47 = icmp eq i32 %46, 103
  br i1 %47, label %48, label %53

48:                                               ; preds = %41
  %49 = load i32, i32* %3, align 4
  %50 = sub nsw i32 %49, 2
  %51 = sext i32 %50 to i64
  %52 = getelementptr inbounds [100 x i8], [100 x i8]* %4, i64 0, i64 %51
  store i8 0, i8* %52, align 1
  br label %53

53:                                               ; preds = %48, %41
  %54 = getelementptr inbounds [100 x i8], [100 x i8]* %4, i64 0, i64 0
  %55 = call i32 @puts(i8* %54)
  br label %56

56:                                               ; preds = %53
  %57 = load i32, i32* %2, align 4
  %58 = add nsw i32 %57, 1
  store i32 %58, i32* %2, align 4
  br label %6

59:                                               ; preds = %6
  ret void
}

declare dso_local i32 @__isoc99_scanf(i8*, ...) #1

declare dso_local i32 @gets(...) #1

; Function Attrs: nounwind readonly
declare dso_local i64 @strlen(i8*) #2

declare dso_local i32 @puts(i8*) #1


!llvm.module.flags = !{!0}
!llvm.ident = !{!1}

!0 = !{i32 1, !"wchar_size", i32 4}
!1 = !{!"clang version 10.0.0-4ubuntu1 "}
